target datalayout = "e-m:e-p270:32:32-p271:32:32-p272:64:64-i64:64-i128:128-f80:128-n8:16:32:64-S128"
target triple = "x86_64-pc-linux-gnu"

%"class.std::basic_ostream" = type { ptr, %"class.std::basic_ios" }
%"class.std::basic_ios" = type { %"class.std::ios_base", ptr, i8, i8, ptr, ptr, ptr, ptr }
%"class.std::ios_base" = type { ptr, i64, i64, i32, i32, i32, ptr, %"struct.std::ios_base::_Words", [8 x %"struct.std::ios_base::_Words"], i32, ptr, %"class.std::locale" }
%"struct.std::ios_base::_Words" = type { ptr, i64 }
%"class.std::locale" = type { ptr }
%"class.testing::internal::GTestLog" = type { i32 }

@_ZSt4cerr = external global %"class.std::basic_ostream", align 8
@.str.152 = private unnamed_addr constant [166 x i8] c"generated/home/dtcxzyw/WorkSpace/Projects/compilers/llvm-opt-benchmark/bench/abseil-cpp/bench_build/googletest-src/googletest/include/gtest/internal/gtest-internal.h\00", align 1
@.str.153 = private unnamed_addr constant [51 x i8] c"Condition !test_case_fp || !test_suite_fp failed. \00", align 1
@.str.154 = private unnamed_addr constant [107 x i8] c"Test can not provide both SetUpTestSuite and SetUpTestCase, please make sure there is only one present at \00", align 1
@.str.155 = private unnamed_addr constant [2 x i8] c":\00", align 1

; Function Attrs: inlinehint mustprogress nounwind uwtable
define linkonce_odr dso_local noundef i32 @_ZStorSt12_Ios_IostateS_(i32 noundef %0, i32 noundef %1) #10 comdat {
  %3 = alloca i32, align 4
  %4 = alloca i32, align 4
  store i32 %0, ptr %3, align 4, !tbaa !583
  store i32 %1, ptr %4, align 4, !tbaa !583
  %5 = load i32, ptr %3, align 4, !tbaa !583
  %6 = load i32, ptr %4, align 4, !tbaa !583
  %7 = or i32 %5, %6
  ret i32 %7
}

; Function Attrs: mustprogress nounwind uwtable
define available_externally noundef i32 @_ZNKSt9basic_iosIcSt11char_traitsIcEE7rdstateEv(ptr noundef nonnull align 8 dereferenceable(264) %0) #5 align 2 {
  %2 = alloca ptr, align 8
  store ptr %0, ptr %2, align 8, !tbaa !113
  %3 = load ptr, ptr %2, align 8
  %4 = getelementptr inbounds nuw %"class.std::ios_base", ptr %3, i32 0, i32 5
  %5 = load i32, ptr %4, align 8, !tbaa !584
  ret i32 %5
}

; Function Attrs: mustprogress nounwind uwtable
define linkonce_odr dso_local noundef i64 @_ZNSt11char_traitsIcE6lengthEPKc(ptr noundef %0) #5 comdat align 2 {
  %2 = alloca ptr, align 8
  store ptr %0, ptr %2, align 8, !tbaa !13
  %3 = load ptr, ptr %2, align 8, !tbaa !13
  %4 = call i64 @strlen(ptr noundef %3) #3
  ret i64 %4
}

; Function Attrs: mustprogress uwtable
define available_externally void @_ZNSt9basic_iosIcSt11char_traitsIcEE8setstateESt12_Ios_Iostate(ptr noundef nonnull align 8 dereferenceable(264) %0, i32 noundef %1) #6 align 2 {
  %3 = alloca ptr, align 8
  %4 = alloca i32, align 4
  store ptr %0, ptr %3, align 8, !tbaa !113
  store i32 %1, ptr %4, align 4, !tbaa !583
  %5 = load ptr, ptr %3, align 8
  %6 = call noundef i32 @_ZNKSt9basic_iosIcSt11char_traitsIcEE7rdstateEv(ptr noundef nonnull align 8 dereferenceable(264) %5)
  %7 = load i32, ptr %4, align 4, !tbaa !583
  %8 = call noundef i32 @_ZStorSt12_Ios_IostateS_(i32 noundef %6, i32 noundef %7)
  call void @_ZNSt9basic_iosIcSt11char_traitsIcEE5clearESt12_Ios_Iostate(ptr noundef nonnull align 8 dereferenceable(264) %5, i32 noundef %8)
  ret void
}

; Function Attrs: inlinehint mustprogress uwtable
define available_externally noundef nonnull align 8 dereferenceable(8) ptr @_ZStlsISt11char_traitsIcEERSt13basic_ostreamIcT_ES5_PKc(ptr noundef nonnull align 8 dereferenceable(8) %0, ptr noundef %1) #8 {
  %3 = alloca ptr, align 8
  %4 = alloca ptr, align 8
  store ptr %0, ptr %3, align 8, !tbaa !111
  store ptr %1, ptr %4, align 8, !tbaa !13
  %5 = load ptr, ptr %4, align 8, !tbaa !13
  %6 = icmp ne ptr %5, null
  br i1 %6, label %13, label %7

7:                                                ; preds = %2
  %8 = load ptr, ptr %3, align 8, !tbaa !111
  %9 = load ptr, ptr %8, align 8, !tbaa !27
  %10 = getelementptr i8, ptr %9, i64 -24
  %11 = load i64, ptr %10, align 8
  %12 = getelementptr inbounds i8, ptr %8, i64 %11
  call void @_ZNSt9basic_iosIcSt11char_traitsIcEE8setstateESt12_Ios_Iostate(ptr noundef nonnull align 8 dereferenceable(264) %12, i32 noundef 1)
  br label %19

13:                                               ; preds = %2
  %14 = load ptr, ptr %3, align 8, !tbaa !111
  %15 = load ptr, ptr %4, align 8, !tbaa !13
  %16 = load ptr, ptr %4, align 8, !tbaa !13
  %17 = call noundef i64 @_ZNSt11char_traitsIcE6lengthEPKc(ptr noundef %16)
  %18 = call noundef nonnull align 8 dereferenceable(8) ptr @_ZSt16__ostream_insertIcSt11char_traitsIcEERSt13basic_ostreamIT_T0_ES6_PKS3_l(ptr noundef nonnull align 8 dereferenceable(8) %14, ptr noundef %15, i64 noundef %17)
  br label %19

19:                                               ; preds = %13, %7
  %20 = load ptr, ptr %3, align 8, !tbaa !111
  ret ptr %20
}

; Function Attrs: mustprogress nounwind uwtable
define linkonce_odr dso_local noundef nonnull align 8 dereferenceable(8) ptr @_ZN7testing8internal8GTestLog9GetStreamEv(ptr noundef nonnull align 4 dereferenceable(4) %0) #5 comdat align 2 {
  %2 = alloca ptr, align 8
  store ptr %0, ptr %2, align 8, !tbaa !378
  ret ptr @_ZSt4cerr
}

; Function Attrs: inlinehint mustprogress nounwind uwtable
define linkonce_odr dso_local noundef ptr @_ZN7testing8internal19GetNotDefaultOrNullEPFvvES2_(ptr noundef %0, ptr noundef %1) #10 comdat {
  %3 = alloca ptr, align 8
  %4 = alloca ptr, align 8
  store ptr %0, ptr %3, align 8, !tbaa !24
  store ptr %1, ptr %4, align 8, !tbaa !24
  %5 = load ptr, ptr %3, align 8, !tbaa !24
  %6 = load ptr, ptr %4, align 8, !tbaa !24
  %7 = icmp eq ptr %5, %6
  br i1 %7, label %8, label %9

8:                                                ; preds = %2
  br label %11

9:                                                ; preds = %2
  %10 = load ptr, ptr %3, align 8, !tbaa !24
  br label %11

11:                                               ; preds = %9, %8
  %12 = phi ptr [ null, %8 ], [ %10, %9 ]
  ret ptr %12
}

; Function Attrs: mustprogress uwtable
define internal noundef ptr @_ZN7testing8internal16SuiteApiResolverIN4absl18container_internal12_GLOBAL__N_17FixtureEE19GetSetUpCaseOrSuiteEPKci(ptr noundef %0, i32 noundef %1) #6 align 2 personality ptr @__gxx_personality_v0 {
  %3 = alloca ptr, align 8
  %4 = alloca i32, align 4
  %5 = alloca ptr, align 8
  %6 = alloca ptr, align 8
  %7 = alloca %"class.testing::internal::GTestLog", align 4
  %8 = alloca ptr, align 8
  %9 = alloca i32, align 4
  store ptr %0, ptr %3, align 8, !tbaa !13
  store i32 %1, ptr %4, align 4, !tbaa !17
  call void @llvm.lifetime.start.p0(i64 8, ptr %5) #3
  %10 = call noundef ptr @_ZN7testing8internal19GetNotDefaultOrNullEPFvvES2_(ptr noundef @_ZN7testing4Test13SetUpTestCaseEv, ptr noundef @_ZN7testing4Test13SetUpTestCaseEv)
  store ptr %10, ptr %5, align 8, !tbaa !24
  call void @llvm.lifetime.start.p0(i64 8, ptr %6) #3
  %11 = call noundef ptr @_ZN7testing8internal19GetNotDefaultOrNullEPFvvES2_(ptr noundef @_ZN7testing4Test14SetUpTestSuiteEv, ptr noundef @_ZN7testing4Test14SetUpTestSuiteEv)
  store ptr %11, ptr %6, align 8, !tbaa !24
  %12 = load ptr, ptr %5, align 8, !tbaa !24
  %13 = icmp ne ptr %12, null
  br i1 %13, label %14, label %18

14:                                               ; preds = %2
  %15 = load ptr, ptr %6, align 8, !tbaa !24
  %16 = icmp ne ptr %15, null
  %17 = xor i1 %16, true
  br label %18

18:                                               ; preds = %14, %2
  %19 = phi i1 [ true, %2 ], [ %17, %14 ]
  %20 = call noundef zeroext i1 @_ZN7testing8internal6IsTrueEb(i1 noundef zeroext %19)
  br i1 %20, label %21, label %22

21:                                               ; preds = %18
  br label %40

22:                                               ; preds = %18
  call void @llvm.lifetime.start.p0(i64 4, ptr %7) #3
  call void @_ZN7testing8internal8GTestLogC1ENS0_16GTestLogSeverityEPKci(ptr noundef nonnull align 4 dereferenceable(4) %7, i32 noundef 3, ptr noundef @.str.152, i32 noundef 513)
  %23 = call noundef nonnull align 8 dereferenceable(8) ptr @_ZN7testing8internal8GTestLog9GetStreamEv(ptr noundef nonnull align 4 dereferenceable(4) %7)
  %24 = invoke noundef nonnull align 8 dereferenceable(8) ptr @_ZStlsISt11char_traitsIcEERSt13basic_ostreamIcT_ES5_PKc(ptr noundef nonnull align 8 dereferenceable(8) %23, ptr noundef @.str.153)
          to label %25 unwind label %36

25:                                               ; preds = %22
  %26 = invoke noundef nonnull align 8 dereferenceable(8) ptr @_ZStlsISt11char_traitsIcEERSt13basic_ostreamIcT_ES5_PKc(ptr noundef nonnull align 8 dereferenceable(8) %24, ptr noundef @.str.154)
          to label %27 unwind label %36

27:                                               ; preds = %25
  %28 = load ptr, ptr %3, align 8, !tbaa !13
  %29 = invoke noundef nonnull align 8 dereferenceable(8) ptr @_ZStlsISt11char_traitsIcEERSt13basic_ostreamIcT_ES5_PKc(ptr noundef nonnull align 8 dereferenceable(8) %26, ptr noundef %28)
          to label %30 unwind label %36

30:                                               ; preds = %27
  %31 = invoke noundef nonnull align 8 dereferenceable(8) ptr @_ZStlsISt11char_traitsIcEERSt13basic_ostreamIcT_ES5_PKc(ptr noundef nonnull align 8 dereferenceable(8) %29, ptr noundef @.str.155)
          to label %32 unwind label %36

32:                                               ; preds = %30
  %33 = load i32, ptr %4, align 4, !tbaa !17
  %34 = invoke noundef nonnull align 8 dereferenceable(8) ptr @_ZNSolsEi(ptr noundef nonnull align 8 dereferenceable(8) %31, i32 noundef %33)
          to label %35 unwind label %36

35:                                               ; preds = %32
  call void @_ZN7testing8internal8GTestLogD1Ev(ptr noundef nonnull align 4 dereferenceable(4) %7) #3
  call void @llvm.lifetime.end.p0(i64 4, ptr %7) #3
  br label %40

36:                                               ; preds = %32, %30, %27, %25, %22
  %37 = landingpad { ptr, i32 }
          cleanup
  %38 = extractvalue { ptr, i32 } %37, 0
  store ptr %38, ptr %8, align 8
  %39 = extractvalue { ptr, i32 } %37, 1
  store i32 %39, ptr %9, align 4
  call void @_ZN7testing8internal8GTestLogD1Ev(ptr noundef nonnull align 4 dereferenceable(4) %7) #3
  call void @llvm.lifetime.end.p0(i64 4, ptr %7) #3
  call void @llvm.lifetime.end.p0(i64 8, ptr %6) #3
  call void @llvm.lifetime.end.p0(i64 8, ptr %5) #3
  br label %49

40:                                               ; preds = %35, %21
  %41 = load ptr, ptr %5, align 8, !tbaa !24
  %42 = icmp ne ptr %41, null
  br i1 %42, label %43, label %45

43:                                               ; preds = %40
  %44 = load ptr, ptr %5, align 8, !tbaa !24
  br label %47

45:                                               ; preds = %40
  %46 = load ptr, ptr %6, align 8, !tbaa !24
  br label %47

47:                                               ; preds = %45, %43
  %48 = phi ptr [ %44, %43 ], [ %46, %45 ]
  call void @llvm.lifetime.end.p0(i64 8, ptr %6) #3
  call void @llvm.lifetime.end.p0(i64 8, ptr %5) #3
  ret ptr %48

49:                                               ; preds = %36
  %50 = load ptr, ptr %8, align 8
  %51 = load i32, ptr %9, align 4
  %52 = insertvalue { ptr, i32 } poison, ptr %50, 0
  %53 = insertvalue { ptr, i32 } %52, i32 %51, 1
  resume { ptr, i32 } %53
}